target datalayout = "e-m:e-p270:32:32-p271:32:32-p272:64:64-i64:64-i128:128-f80:128-n8:16:32:64-S128"
target triple = "x86_64-pc-linux-gnu"

%struct.logstreamer_param = type { ptr, i64, [1024 x i8], ptr, i32, i32, i32 }
%struct.StreamCtl = type { i64, i32, ptr, i32, i8, i8, i8, ptr, i32, ptr, ptr, ptr }
%struct.WalWriteMethod = type { ptr, i32, i32, i8, ptr, i32 }
%struct.WalWriteMethodOps = type { ptr, ptr, ptr, ptr, ptr, ptr, ptr, ptr, ptr }

@format = internal global i8 0, align 1
@standby_message_timeout = internal global i32 10000, align 4
@replication_slot = internal global ptr null, align 8
@in_log_streamer = internal global i8 0, align 1
@bgpipe = internal global [2 x i32] [i32 -1, i32 -1], align 4
@.str.244 = private unnamed_addr constant [39 x i8] c"could not finish writing WAL files: %m\00", align 1

; Function Attrs: nounwind uwtable
define internal i32 @LogStreamerMain(ptr noundef %0) #0 {
  %2 = alloca i32, align 4
  %3 = alloca ptr, align 8
  %4 = alloca %struct.StreamCtl, align 8
  %5 = alloca i32, align 4
  store ptr %0, ptr %3, align 8
  call void @llvm.lifetime.start.p0(i64 72, ptr %4) #12
  call void @llvm.memset.p0.i64(ptr align 8 %4, i8 0, i64 72, i1 false)
  store i8 1, ptr @in_log_streamer, align 1
  %6 = load ptr, ptr %3, align 8
  %7 = getelementptr inbounds nuw %struct.logstreamer_param, ptr %6, i32 0, i32 1
  %8 = load i64, ptr %7, align 8
  %9 = getelementptr inbounds nuw %struct.StreamCtl, ptr %4, i32 0, i32 0
  store i64 %8, ptr %9, align 8
  %10 = load ptr, ptr %3, align 8
  %11 = getelementptr inbounds nuw %struct.logstreamer_param, ptr %10, i32 0, i32 4
  %12 = load i32, ptr %11, align 8
  %13 = getelementptr inbounds nuw %struct.StreamCtl, ptr %4, i32 0, i32 1
  store i32 %12, ptr %13, align 8
  %14 = load ptr, ptr %3, align 8
  %15 = getelementptr inbounds nuw %struct.logstreamer_param, ptr %14, i32 0, i32 3
  %16 = load ptr, ptr %15, align 8
  %17 = getelementptr inbounds nuw %struct.StreamCtl, ptr %4, i32 0, i32 2
  store ptr %16, ptr %17, align 8
  %18 = getelementptr inbounds nuw %struct.StreamCtl, ptr %4, i32 0, i32 7
  store ptr @reached_end_position, ptr %18, align 8
  %19 = load i32, ptr @bgpipe, align 4
  %20 = getelementptr inbounds nuw %struct.StreamCtl, ptr %4, i32 0, i32 8
  store i32 %19, ptr %20, align 8
  %21 = load i32, ptr @standby_message_timeout, align 4
  %22 = getelementptr inbounds nuw %struct.StreamCtl, ptr %4, i32 0, i32 3
  store i32 %21, ptr %22, align 8
  %23 = getelementptr inbounds nuw %struct.StreamCtl, ptr %4, i32 0, i32 4
  store i8 0, ptr %23, align 4
  %24 = getelementptr inbounds nuw %struct.StreamCtl, ptr %4, i32 0, i32 6
  store i8 0, ptr %24, align 2
  %25 = getelementptr inbounds nuw %struct.StreamCtl, ptr %4, i32 0, i32 5
  store i8 1, ptr %25, align 1
  %26 = getelementptr inbounds nuw %struct.StreamCtl, ptr %4, i32 0, i32 10
  store ptr null, ptr %26, align 8
  %27 = load ptr, ptr @replication_slot, align 8
  %28 = getelementptr inbounds nuw %struct.StreamCtl, ptr %4, i32 0, i32 11
  store ptr %27, ptr %28, align 8
  %29 = load i8, ptr @format, align 1
  %30 = sext i8 %29 to i32
  %31 = icmp eq i32 %30, 112
  br i1 %31, label %32, label %41

32:                                               ; preds = %1
  %33 = load ptr, ptr %3, align 8
  %34 = getelementptr inbounds nuw %struct.logstreamer_param, ptr %33, i32 0, i32 2
  %35 = getelementptr inbounds [1024 x i8], ptr %34, i64 0, i64 0
  %36 = getelementptr inbounds nuw %struct.StreamCtl, ptr %4, i32 0, i32 6
  %37 = load i8, ptr %36, align 2, !range !6, !noundef !7
  %38 = trunc i8 %37 to i1
  %39 = call ptr @CreateWalDirectoryMethod(ptr noundef %35, i32 noundef 0, i32 noundef 0, i1 noundef zeroext %38)
  %40 = getelementptr inbounds nuw %struct.StreamCtl, ptr %4, i32 0, i32 9
  store ptr %39, ptr %40, align 8
  br label %56

41:                                               ; preds = %1
  %42 = load ptr, ptr %3, align 8
  %43 = getelementptr inbounds nuw %struct.logstreamer_param, ptr %42, i32 0, i32 2
  %44 = getelementptr inbounds [1024 x i8], ptr %43, i64 0, i64 0
  %45 = load ptr, ptr %3, align 8
  %46 = getelementptr inbounds nuw %struct.logstreamer_param, ptr %45, i32 0, i32 5
  %47 = load i32, ptr %46, align 4
  %48 = load ptr, ptr %3, align 8
  %49 = getelementptr inbounds nuw %struct.logstreamer_param, ptr %48, i32 0, i32 6
  %50 = load i32, ptr %49, align 8
  %51 = getelementptr inbounds nuw %struct.StreamCtl, ptr %4, i32 0, i32 6
  %52 = load i8, ptr %51, align 2, !range !6, !noundef !7
  %53 = trunc i8 %52 to i1
  %54 = call ptr @CreateWalTarMethod(ptr noundef %44, i32 noundef %47, i32 noundef %50, i1 noundef zeroext %53)
  %55 = getelementptr inbounds nuw %struct.StreamCtl, ptr %4, i32 0, i32 9
  store ptr %54, ptr %55, align 8
  br label %56

56:                                               ; preds = %41, %32
  %57 = load ptr, ptr %3, align 8
  %58 = getelementptr inbounds nuw %struct.logstreamer_param, ptr %57, i32 0, i32 0
  %59 = load ptr, ptr %58, align 8
  %60 = call zeroext i1 @ReceiveXlogStream(ptr noundef %59, ptr noundef %4)
  br i1 %60, label %62, label %61

61:                                               ; preds = %56
  store i32 1, ptr %2, align 4
  store i32 1, ptr %5, align 4
  br label %85

62:                                               ; preds = %56
  %63 = getelementptr inbounds nuw %struct.StreamCtl, ptr %4, i32 0, i32 9
  %64 = load ptr, ptr %63, align 8
  %65 = getelementptr inbounds nuw %struct.WalWriteMethod, ptr %64, i32 0, i32 0
  %66 = load ptr, ptr %65, align 8
  %67 = getelementptr inbounds nuw %struct.WalWriteMethodOps, ptr %66, i32 0, i32 7
  %68 = load ptr, ptr %67, align 8
  %69 = getelementptr inbounds nuw %struct.StreamCtl, ptr %4, i32 0, i32 9
  %70 = load ptr, ptr %69, align 8
  %71 = call zeroext i1 %68(ptr noundef %70)
  br i1 %71, label %73, label %72

72:                                               ; preds = %62
  call void (i32, i32, ptr, ...) @pg_log_generic(i32 noundef 4, i32 noundef 0, ptr noundef @.str.244)
  store i32 1, ptr %2, align 4
  store i32 1, ptr %5, align 4
  br label %85

73:                                               ; preds = %62
  %74 = load ptr, ptr %3, align 8
  %75 = getelementptr inbounds nuw %struct.logstreamer_param, ptr %74, i32 0, i32 0
  %76 = load ptr, ptr %75, align 8
  call void @PQfinish(ptr noundef %76)
  %77 = getelementptr inbounds nuw %struct.StreamCtl, ptr %4, i32 0, i32 9
  %78 = load ptr, ptr %77, align 8
  %79 = getelementptr inbounds nuw %struct.WalWriteMethod, ptr %78, i32 0, i32 0
  %80 = load ptr, ptr %79, align 8
  %81 = getelementptr inbounds nuw %struct.WalWriteMethodOps, ptr %80, i32 0, i32 8
  %82 = load ptr, ptr %81, align 8
  %83 = getelementptr inbounds nuw %struct.StreamCtl, ptr %4, i32 0, i32 9
  %84 = load ptr, ptr %83, align 8
  call void %82(ptr noundef %84)
  store i32 0, ptr %2, align 4
  store i32 1, ptr %5, align 4
  br label %85

85:                                               ; preds = %73, %72, %61
  call void @llvm.lifetime.end.p0(i64 72, ptr %4) #12
  %86 = load i32, ptr %2, align 4
  ret i32 %86
}