; Function Attrs: nounwind uwtable
define internal fastcc range(i32 0, 2) i32 @LogStreamerMain(ptr noundef %0) unnamed_addr #0 {
  %2 = alloca %struct.StreamCtl, align 8
  call void @llvm.lifetime.start.p0(i64 72, ptr nonnull %2) #17
  %3 = getelementptr inbounds nuw i8, ptr %2, i64 8
  call void @llvm.memset.p0.i64(ptr noundef nonnull align 8 dereferenceable(72) %3, i8 0, i64 40, i1 false)
  store i1 true, ptr @in_log_streamer, align 1
  %4 = getelementptr inbounds nuw i8, ptr %0, i64 8
  %5 = load i64, ptr %4, align 8
  store i64 %5, ptr %2, align 8
  %6 = getelementptr inbounds nuw i8, ptr %0, i64 1048
  %7 = load i32, ptr %6, align 8
  %8 = getelementptr inbounds nuw i8, ptr %2, i64 8
  store i32 %7, ptr %8, align 8
  %9 = getelementptr inbounds nuw i8, ptr %0, i64 1040
  %10 = load ptr, ptr %9, align 8
  %11 = getelementptr inbounds nuw i8, ptr %2, i64 16
  store ptr %10, ptr %11, align 8
  %12 = getelementptr inbounds nuw i8, ptr %2, i64 32
  store ptr @reached_end_position, ptr %12, align 8
  %13 = load i32, ptr @bgpipe, align 4
  %14 = getelementptr inbounds nuw i8, ptr %2, i64 40
  store i32 %13, ptr %14, align 8
  %15 = load i32, ptr @standby_message_timeout, align 4
  %16 = getelementptr inbounds nuw i8, ptr %2, i64 24
  store i32 %15, ptr %16, align 8
  %17 = getelementptr inbounds nuw i8, ptr %2, i64 30
  store i8 0, ptr %17, align 2
  %18 = getelementptr inbounds nuw i8, ptr %2, i64 29
  store i8 1, ptr %18, align 1
  %19 = getelementptr inbounds nuw i8, ptr %2, i64 56
  store ptr null, ptr %19, align 8
  %20 = load ptr, ptr @replication_slot, align 8
  %21 = getelementptr inbounds nuw i8, ptr %2, i64 64
  store ptr %20, ptr %21, align 8
  %22 = load i8, ptr @format, align 1
  %23 = icmp eq i8 %22, 112
  %24 = getelementptr inbounds nuw i8, ptr %0, i64 16
  br i1 %23, label %25, label %27

25:                                               ; preds = %1
  %26 = tail call ptr @CreateWalDirectoryMethod(ptr noundef nonnull %24, i32 noundef 0, i32 noundef 0, i1 noundef zeroext false) #17
  br label %33

27:                                               ; preds = %1
  %28 = getelementptr inbounds nuw i8, ptr %0, i64 1052
  %29 = load i32, ptr %28, align 4
  %30 = getelementptr inbounds nuw i8, ptr %0, i64 1056
  %31 = load i32, ptr %30, align 8
  %32 = tail call ptr @CreateWalTarMethod(ptr noundef nonnull %24, i32 noundef %29, i32 noundef %31, i1 noundef zeroext false) #17
  br label %33

33:                                               ; preds = %27, %25
  %.sink = phi ptr [ %26, %25 ], [ %32, %27 ]
  %34 = getelementptr inbounds nuw i8, ptr %2, i64 48
  store ptr %.sink, ptr %34, align 8
  %35 = load ptr, ptr %0, align 8
  %36 = call zeroext i1 @ReceiveXlogStream(ptr noundef %35, ptr noundef nonnull %2) #17
  br i1 %36, label %37, label %50

37:                                               ; preds = %33
  %38 = load ptr, ptr %34, align 8
  %39 = load ptr, ptr %38, align 8
  %40 = getelementptr inbounds nuw i8, ptr %39, i64 56
  %41 = load ptr, ptr %40, align 8
  %42 = call zeroext i1 %41(ptr noundef nonnull %38) #17
  br i1 %42, label %44, label %43

43:                                               ; preds = %37
  call void (i32, i32, ptr, ...) @pg_log_generic(i32 noundef 4, i32 noundef 0, ptr noundef nonnull @.str.244) #17
  br label %50

44:                                               ; preds = %37
  %45 = load ptr, ptr %0, align 8
  call void @PQfinish(ptr noundef %45) #17
  %46 = load ptr, ptr %34, align 8
  %47 = load ptr, ptr %46, align 8
  %48 = getelementptr inbounds nuw i8, ptr %47, i64 64
  %49 = load ptr, ptr %48, align 8
  call void %49(ptr noundef nonnull %46) #17
  br label %50

50:                                               ; preds = %33, %44, %43
  %.0 = phi i32 [ 0, %44 ], [ 1, %43 ], [ 1, %33 ]
  call void @llvm.lifetime.end.p0(i64 72, ptr nonnull %2) #17
  ret i32 %.0
}